; Function Attrs: mustprogress nounwind uwtable
define void @_ZN3zmq12v2_decoder_tD2Ev(ptr noundef nonnull align 8 dereferenceable(184) %0) unnamed_addr #6 align 2 personality ptr @__gxx_personality_v0 {
  %2 = getelementptr inbounds nuw i8, ptr %0, i64 104
  %3 = invoke noundef i32 @_ZN3zmq5msg_t5closeEv(ptr noundef nonnull align 8 dereferenceable(64) %2)
          to label %4 unwind label %18

4:                                                ; preds = %1
  %.not = icmp eq i32 %3, 0
  br i1 %.not, label %13, label %5, !prof !21

5:                                                ; preds = %4
  %6 = tail call ptr @__errno_location() #16
  %7 = load i32, ptr %6, align 4, !tbaa !22
  %8 = tail call ptr @strerror(i32 noundef %7) #15
  %9 = load ptr, ptr @stderr, align 8, !tbaa !24
  %10 = tail call i32 (ptr, ptr, ...) @fprintf(ptr noundef %9, ptr noundef nonnull @.str, ptr noundef %8, ptr noundef nonnull @.str.1, i32 noundef 32) #17
  %11 = load ptr, ptr @stderr, align 8, !tbaa !24
  %12 = tail call i32 @fflush(ptr noundef %11)
  invoke void @_ZN3zmq9zmq_abortEPKc(ptr noundef %8)
          to label %13 unwind label %18

13:                                               ; preds = %5, %4
  store ptr getelementptr inbounds nuw inrange(-16, 48) (i8, ptr @_ZTVN3zmq14decoder_base_tINS_12v2_decoder_tENS_31shared_message_memory_allocatorEEE, i64 16), ptr %0, align 8, !tbaa !3
  %14 = getelementptr inbounds nuw i8, ptr %0, i64 40
  invoke void @_ZN3zmq31shared_message_memory_allocator10deallocateEv(ptr noundef nonnull align 8 dereferenceable(40) %14)
          to label %_ZN3zmq14decoder_base_tINS_12v2_decoder_tENS_31shared_message_memory_allocatorEED2Ev.exit unwind label %15

15:                                               ; preds = %13
  %16 = landingpad { ptr, i32 }
          catch ptr null
  %17 = extractvalue { ptr, i32 } %16, 0
  tail call void @__clang_call_terminate(ptr %17) #18
  unreachable

_ZN3zmq14decoder_base_tINS_12v2_decoder_tENS_31shared_message_memory_allocatorEED2Ev.exit: ; preds = %13
  tail call void @_ZN3zmq31shared_message_memory_allocatorD1Ev(ptr noundef nonnull align 8 dereferenceable(40) %14) #15
  ret void

18:                                               ; preds = %5, %1
  %19 = landingpad { ptr, i32 }
          catch ptr null
  %20 = extractvalue { ptr, i32 } %19, 0
  tail call void @__clang_call_terminate(ptr %20) #18
  unreachable
}